target datalayout = "e-m:e-p270:32:32-p271:32:32-p272:64:64-i64:64-i128:128-f80:128-n8:16:32:64-S128"
target triple = "x86_64-pc-linux-gnu"

%"struct.OpenSubdiv::v3_6_0::Vtr::internal::Refinement::ChildTag" = type { i8 }

; Function Attrs: mustprogress nounwind uwtable
define linkonce_odr void @_ZN10OpenSubdiv6v3_6_03Vtr8internal10Refinement8ChildTagC2Ev(ptr noundef nonnull align 1 dereferenceable(1) %0) unnamed_addr #0 comdat align 2 {
  %2 = alloca ptr, align 8
  store ptr %0, ptr %2, align 8
  ret void
}

; Function Attrs: mustprogress uwtable
define void @_ZN10OpenSubdiv6v3_6_03Vtr8internal10Refinement28populateChildToParentMappingEv(ptr noundef nonnull align 8 dereferenceable(504) %0) #1 align 2 {
  %2 = alloca ptr, align 8
  %3 = alloca [2 x [4 x %"struct.OpenSubdiv::v3_6_0::Vtr::internal::Refinement::ChildTag"]], align 1
  %4 = alloca i32, align 4
  %5 = alloca i32, align 4
  %6 = alloca ptr, align 8
  store ptr %0, ptr %2, align 8
  %7 = load ptr, ptr %2, align 8
  %8 = getelementptr inbounds [2 x [4 x %"struct.OpenSubdiv::v3_6_0::Vtr::internal::Refinement::ChildTag"]], ptr %3, i32 0, i32 0, i32 0
  %9 = getelementptr inbounds %"struct.OpenSubdiv::v3_6_0::Vtr::internal::Refinement::ChildTag", ptr %8, i64 8
  br label %10

10:                                               ; preds = %10, %1
  %11 = phi ptr [ %8, %1 ], [ %12, %10 ]
  call void @_ZN10OpenSubdiv6v3_6_03Vtr8internal10Refinement8ChildTagC2Ev(ptr noundef nonnull align 1 dereferenceable(1) %11)
  %12 = getelementptr inbounds %"struct.OpenSubdiv::v3_6_0::Vtr::internal::Refinement::ChildTag", ptr %11, i64 1
  %13 = icmp eq ptr %12, %9
  br i1 %13, label %14, label %10

14:                                               ; preds = %10
  store i32 0, ptr %4, align 4
  br label %15

15:                                               ; preds = %52, %14
  %16 = load i32, ptr %4, align 4
  %17 = icmp slt i32 %16, 2
  br i1 %17, label %18, label %55

18:                                               ; preds = %15
  store i32 0, ptr %5, align 4
  br label %19

19:                                               ; preds = %48, %18
  %20 = load i32, ptr %5, align 4
  %21 = icmp slt i32 %20, 4
  br i1 %21, label %22, label %51

22:                                               ; preds = %19
  %23 = load i32, ptr %4, align 4
  %24 = sext i32 %23 to i64
  %25 = getelementptr inbounds [2 x [4 x %"struct.OpenSubdiv::v3_6_0::Vtr::internal::Refinement::ChildTag"]], ptr %3, i64 0, i64 %24
  %26 = load i32, ptr %5, align 4
  %27 = sext i32 %26 to i64
  %28 = getelementptr inbounds [4 x %"struct.OpenSubdiv::v3_6_0::Vtr::internal::Refinement::ChildTag"], ptr %25, i64 0, i64 %27
  store ptr %28, ptr %6, align 8
  %29 = load i32, ptr %4, align 4
  %30 = trunc i32 %29 to i8
  %31 = load ptr, ptr %6, align 8
  %32 = load i8, ptr %31, align 1
  %33 = and i8 %30, 1
  %34 = and i8 %32, -2
  %35 = or i8 %34, %33
  store i8 %35, ptr %31, align 1
  %36 = load ptr, ptr %6, align 8
  %37 = load i8, ptr %36, align 1
  %38 = and i8 %37, -7
  %39 = or i8 %38, 0
  store i8 %39, ptr %36, align 1
  %40 = load i32, ptr %5, align 4
  %41 = trunc i32 %40 to i8
  %42 = load ptr, ptr %6, align 8
  %43 = load i8, ptr %42, align 1
  %44 = and i8 %41, 3
  %45 = shl i8 %44, 3
  %46 = and i8 %43, -25
  %47 = or i8 %46, %45
  store i8 %47, ptr %42, align 1
  br label %48

48:                                               ; preds = %22
  %49 = load i32, ptr %5, align 4
  %50 = add nsw i32 %49, 1
  store i32 %50, ptr %5, align 4
  br label %19, !llvm.loop !9

51:                                               ; preds = %19
  br label %52

52:                                               ; preds = %51
  %53 = load i32, ptr %4, align 4
  %54 = add nsw i32 %53, 1
  store i32 %54, ptr %4, align 4
  br label %15, !llvm.loop !10

55:                                               ; preds = %15
  %56 = getelementptr inbounds [2 x [4 x %"struct.OpenSubdiv::v3_6_0::Vtr::internal::Refinement::ChildTag"]], ptr %3, i64 0, i64 0
  call void @_ZN10OpenSubdiv6v3_6_03Vtr8internal10Refinement25populateFaceParentVectorsEPA4_KNS3_8ChildTagE(ptr noundef nonnull align 8 dereferenceable(504) %7, ptr noundef %56)
  %57 = getelementptr inbounds [2 x [4 x %"struct.OpenSubdiv::v3_6_0::Vtr::internal::Refinement::ChildTag"]], ptr %3, i64 0, i64 0
  call void @_ZN10OpenSubdiv6v3_6_03Vtr8internal10Refinement25populateEdgeParentVectorsEPA4_KNS3_8ChildTagE(ptr noundef nonnull align 8 dereferenceable(504) %7, ptr noundef %57)
  %58 = getelementptr inbounds [2 x [4 x %"struct.OpenSubdiv::v3_6_0::Vtr::internal::Refinement::ChildTag"]], ptr %3, i64 0, i64 0
  call void @_ZN10OpenSubdiv6v3_6_03Vtr8internal10Refinement27populateVertexParentVectorsEPA4_KNS3_8ChildTagE(ptr noundef nonnull align 8 dereferenceable(504) %7, ptr noundef %58)
  ret void
}