; Function Attrs: mustprogress uwtable
define void @_ZN10OpenSubdiv6v3_6_03Vtr8internal10Refinement28populateChildToParentMappingEv(ptr noundef nonnull align 8 dereferenceable(504) %0) local_unnamed_addr #7 align 2 {
.preheader.preheader:
  %1 = alloca [2 x [4 x %"struct.OpenSubdiv::v3_6_0::Vtr::internal::Refinement::ChildTag"]], align 1
  br label %.preheader

.preheader:                                       ; preds = %.preheader.preheader, %12
  %2 = phi i1 [ true, %.preheader.preheader ], [ false, %12 ]
  %indvars.iv17 = phi i64 [ 0, %.preheader.preheader ], [ 1, %12 ]
  %3 = trunc nuw nsw i64 %indvars.iv17 to i8
  br label %4

4:                                                ; preds = %.preheader, %4
  %indvars.iv = phi i64 [ 0, %.preheader ], [ %indvars.iv.next, %4 ]
  %5 = getelementptr inbounds [2 x [4 x %"struct.OpenSubdiv::v3_6_0::Vtr::internal::Refinement::ChildTag"]], ptr %1, i64 0, i64 %indvars.iv17, i64 %indvars.iv
  %6 = load i8, ptr %5, align 1
  %7 = and i8 %6, -32
  %8 = or disjoint i8 %7, %3
  %9 = trunc i64 %indvars.iv to i8
  %10 = shl nuw nsw i8 %9, 3
  %11 = add nuw nsw i8 %8, %10
  store i8 %11, ptr %5, align 1
  %indvars.iv.next = add nuw nsw i64 %indvars.iv, 1
  %exitcond.not = icmp eq i64 %indvars.iv.next, 4
  br i1 %exitcond.not, label %12, label %4, !llvm.loop !15

12:                                               ; preds = %4
  br i1 %2, label %.preheader, label %13, !llvm.loop !16

13:                                               ; preds = %12
  call void @_ZN10OpenSubdiv6v3_6_03Vtr8internal10Refinement25populateFaceParentVectorsEPA4_KNS3_8ChildTagE(ptr noundef nonnull align 8 dereferenceable(504) %0, ptr noundef nonnull %1)
  call void @_ZN10OpenSubdiv6v3_6_03Vtr8internal10Refinement25populateEdgeParentVectorsEPA4_KNS3_8ChildTagE(ptr noundef nonnull align 8 dereferenceable(504) %0, ptr noundef nonnull %1)
  call void @_ZN10OpenSubdiv6v3_6_03Vtr8internal10Refinement27populateVertexParentVectorsEPA4_KNS3_8ChildTagE(ptr noundef nonnull align 8 dereferenceable(504) %0, ptr noundef nonnull %1)
  ret void
}